; Function Attrs: mustprogress uwtable
define noundef nonnull align 8 dereferenceable(64) ptr @_ZNK6icu_7718RelativeDateFormat9toPatternERNS_13UnicodeStringER10UErrorCode(ptr noundef nonnull align 8 dereferenceable(456) %0, ptr noundef nonnull returned align 8 dereferenceable(64) %1, ptr noundef nonnull align 4 dereferenceable(4) %2) unnamed_addr #1 align 2 {
  %4 = load i32, ptr %2, align 4, !tbaa !38
  %5 = icmp slt i32 %4, 1
  br i1 %5, label %6, label %30

6:                                                ; preds = %3
  %7 = getelementptr inbounds nuw i8, ptr %1, i64 8
  %8 = load i16, ptr %7, align 8, !tbaa !37
  %9 = and i16 %8, 1
  %.not.i = icmp eq i16 %9, 0
  %10 = and i16 %8, 30
  %storemerge.i = select i1 %.not.i, i16 %10, i16 2
  store i16 %storemerge.i, ptr %7, align 8, !tbaa !37
  %11 = getelementptr inbounds nuw i8, ptr %0, i64 56
  %12 = getelementptr inbounds nuw i8, ptr %0, i64 64
  %13 = load i16, ptr %12, align 8, !tbaa !37
  %14 = icmp ugt i16 %13, 31
  %15 = getelementptr inbounds nuw i8, ptr %0, i64 120
  br i1 %14, label %18, label %16

16:                                               ; preds = %6
  %17 = tail call noundef nonnull align 8 dereferenceable(64) ptr @_ZN6icu_7713UnicodeString8copyFromERKS0_a(ptr noundef nonnull align 8 dereferenceable(64) %1, ptr noundef nonnull align 8 dereferenceable(64) %15, i8 noundef signext 0)
  br label %30

18:                                               ; preds = %6
  %19 = getelementptr inbounds nuw i8, ptr %0, i64 128
  %20 = load i16, ptr %19, align 8, !tbaa !37
  %21 = icmp ugt i16 %20, 31
  br i1 %21, label %22, label %26

22:                                               ; preds = %18
  %23 = getelementptr inbounds nuw i8, ptr %0, i64 184
  %24 = load ptr, ptr %23, align 8, !tbaa !28
  %25 = icmp eq ptr %24, null
  br i1 %25, label %26, label %28

26:                                               ; preds = %22, %18
  %27 = tail call noundef nonnull align 8 dereferenceable(64) ptr @_ZN6icu_7713UnicodeString8copyFromERKS0_a(ptr noundef nonnull align 8 dereferenceable(64) %1, ptr noundef nonnull align 8 dereferenceable(64) %11, i8 noundef signext 0)
  br label %30

28:                                               ; preds = %22
  %29 = tail call noundef nonnull align 8 dereferenceable(64) ptr @_ZNK6icu_7715SimpleFormatter6formatERKNS_13UnicodeStringES3_RS1_R10UErrorCode(ptr noundef nonnull align 8 dereferenceable(72) %24, ptr noundef nonnull align 8 dereferenceable(64) %15, ptr noundef nonnull align 8 dereferenceable(64) %11, ptr noundef nonnull align 8 dereferenceable(64) %1, ptr noundef nonnull align 4 dereferenceable(4) %2)
  br label %30

30:                                               ; preds = %16, %28, %26, %3
  ret ptr %1
}